; Function Attrs: mustprogress nounwind uwtable
define noundef nonnull align 8 dereferenceable(72) ptr @_ZN7Iex_3_49EusersExcaSEOS0_(ptr noundef nonnull returned align 8 dereferenceable(72) %0, ptr noundef nonnull align 8 dereferenceable(72) %1) local_unnamed_addr #5 align 2 personality ptr @__gxx_personality_v0 {
  %.not.i.i = icmp eq ptr %0, %1
  br i1 %.not.i.i, label %_ZN7Iex_3_48ErrnoExcaSERS0_.exit, label %3

3:                                                ; preds = %2
  %4 = getelementptr inbounds nuw i8, ptr %1, i64 8
  %5 = getelementptr inbounds nuw i8, ptr %0, i64 8
  invoke void @_ZNSt7__cxx1112basic_stringIcSt11char_traitsIcESaIcEE9_M_assignERKS4_(ptr noundef nonnull align 8 dereferenceable(32) %5, ptr noundef nonnull align 8 dereferenceable(32) %4)
          to label %.noexc unwind label %8

.noexc:                                           ; preds = %3
  %6 = getelementptr inbounds nuw i8, ptr %1, i64 40
  %7 = getelementptr inbounds nuw i8, ptr %0, i64 40
  invoke void @_ZNSt7__cxx1112basic_stringIcSt11char_traitsIcESaIcEE9_M_assignERKS4_(ptr noundef nonnull align 8 dereferenceable(32) %7, ptr noundef nonnull align 8 dereferenceable(32) %6)
          to label %_ZN7Iex_3_48ErrnoExcaSERS0_.exit unwind label %8

_ZN7Iex_3_48ErrnoExcaSERS0_.exit:                 ; preds = %2, %.noexc
  ret ptr %0

8:                                                ; preds = %.noexc, %3
  %9 = landingpad { ptr, i32 }
          catch ptr null
  %10 = extractvalue { ptr, i32 } %9, 0
  tail call void @__clang_call_terminate(ptr %10) #24
  unreachable
}